; ModuleID = 'source-C-CXX/27/1439.c'
source_filename = "source-C-CXX/27/1439.c"
target datalayout = "e-m:e-p270:32:32-p271:32:32-p272:64:64-i64:64-f80:128-n8:16:32:64-S128"
target triple = "x86_64-pc-linux-gnu"

@.str = private unnamed_addr constant [4 x i8] c"%d,\00", align 1
@.str.1 = private unnamed_addr constant [3 x i8] c"%d\00", align 1

; Function Attrs: nounwind sspstrong uwtable
define dso_local i32 @main() local_unnamed_addr #0 {
  %1 = alloca [1000 x i8], align 16
  %2 = alloca [300 x i32], align 16
  %3 = getelementptr inbounds [1000 x i8], [1000 x i8]* %1, i64 0, i64 0
  call void @llvm.lifetime.start.p0i8(i64 1000, i8* nonnull %3) #6
  %4 = bitcast [300 x i32]* %2 to i8*
  call void @llvm.lifetime.start.p0i8(i64 1200, i8* nonnull %4) #6
  call void @llvm.memset.p0i8.i64(i8* noundef nonnull align 16 dereferenceable(1200) %4, i8 0, i64 1200, i1 false)
  %5 = call i32 (i8*, ...) bitcast (i32 (...)* @gets to i32 (i8*, ...)*)(i8* nonnull %3) #6
  %6 = call i64 @strlen(i8* noundef nonnull %3) #7
  %7 = trunc i64 %6 to i32
  %8 = icmp sgt i32 %7, 0
  br i1 %8, label %9, label %34

9:                                                ; preds = %0
  %10 = and i64 %6, 4294967295
  br label %11

11:                                               ; preds = %9, %30
  %12 = phi i64 [ 0, %9 ], [ %31, %30 ]
  %13 = phi i32 [ 0, %9 ], [ %32, %30 ]
  %14 = getelementptr inbounds [1000 x i8], [1000 x i8]* %1, i64 0, i64 %12
  %15 = load i8, i8* %14, align 1, !tbaa !5
  %16 = icmp eq i8 %15, 32
  br i1 %16, label %17, label %24

17:                                               ; preds = %11
  %18 = add nuw nsw i64 %12, 1
  %19 = getelementptr inbounds [1000 x i8], [1000 x i8]* %1, i64 0, i64 %18
  %20 = load i8, i8* %19, align 1, !tbaa !5
  %21 = icmp ne i8 %20, 32
  %22 = zext i1 %21 to i32
  %23 = add nsw i32 %13, %22
  br label %30

24:                                               ; preds = %11
  %25 = sext i32 %13 to i64
  %26 = getelementptr inbounds [300 x i32], [300 x i32]* %2, i64 0, i64 %25
  %27 = load i32, i32* %26, align 4, !tbaa !8
  %28 = add nsw i32 %27, 1
  store i32 %28, i32* %26, align 4, !tbaa !8
  %29 = add nuw nsw i64 %12, 1
  br label %30

30:                                               ; preds = %17, %24
  %31 = phi i64 [ %18, %17 ], [ %29, %24 ]
  %32 = phi i32 [ %23, %17 ], [ %13, %24 ]
  %33 = icmp eq i64 %31, %10
  br i1 %33, label %34, label %11, !llvm.loop !10

34:                                               ; preds = %30, %0
  br label %35

35:                                               ; preds = %34, %41
  %36 = phi i64 [ %37, %41 ], [ 0, %34 ]
  %37 = add nuw nsw i64 %36, 1
  %38 = getelementptr inbounds [300 x i32], [300 x i32]* %2, i64 0, i64 %37
  %39 = load i32, i32* %38, align 4, !tbaa !8
  %40 = icmp eq i32 %39, 0
  br i1 %40, label %46, label %41

41:                                               ; preds = %35
  %42 = getelementptr inbounds [300 x i32], [300 x i32]* %2, i64 0, i64 %36
  %43 = load i32, i32* %42, align 4, !tbaa !8
  %44 = call i32 (i8*, ...) @printf(i8* nonnull dereferenceable(1) getelementptr inbounds ([4 x i8], [4 x i8]* @.str, i64 0, i64 0), i32 %43)
  %45 = icmp eq i64 %37, 300
  br i1 %45, label %51, label %35, !llvm.loop !12

46:                                               ; preds = %35
  %47 = and i64 %36, 4294967295
  %48 = getelementptr inbounds [300 x i32], [300 x i32]* %2, i64 0, i64 %47
  %49 = load i32, i32* %48, align 4, !tbaa !8
  %50 = call i32 (i8*, ...) @printf(i8* nonnull dereferenceable(1) getelementptr inbounds ([3 x i8], [3 x i8]* @.str.1, i64 0, i64 0), i32 %49)
  br label %51

51:                                               ; preds = %41, %46
  call void @llvm.lifetime.end.p0i8(i64 1200, i8* nonnull %4) #6
  call void @llvm.lifetime.end.p0i8(i64 1000, i8* nonnull %3) #6
  ret i32 0
}

; Function Attrs: argmemonly mustprogress nofree nosync nounwind willreturn
declare void @llvm.lifetime.start.p0i8(i64 immarg, i8* nocapture) #1

; Function Attrs: argmemonly mustprogress nofree nounwind willreturn writeonly
declare void @llvm.memset.p0i8.i64(i8* nocapture writeonly, i8, i64, i1 immarg) #2

declare i32 @gets(...) local_unnamed_addr #3

; Function Attrs: argmemonly mustprogress nofree nounwind readonly willreturn
declare i64 @strlen(i8* nocapture) local_unnamed_addr #4

; Function Attrs: nofree nounwind
declare noundef i32 @printf(i8* nocapture noundef readonly, ...) local_unnamed_addr #5

; Function Attrs: argmemonly mustprogress nofree nosync nounwind willreturn
declare void @llvm.lifetime.end.p0i8(i64 immarg, i8* nocapture) #1


!llvm.module.flags = !{!0, !1, !2, !3}
!llvm.ident = !{!4}

!0 = !{i32 1, !"wchar_size", i32 4}
!1 = !{i32 7, !"PIC Level", i32 2}
!2 = !{i32 7, !"PIE Level", i32 2}
!3 = !{i32 7, !"uwtable", i32 1}
!4 = !{!"clang version 13.0.0"}
!5 = !{!6, !6, i64 0}
!6 = !{!"omnipotent char", !7, i64 0}
!7 = !{!"Simple C/C++ TBAA"}
!8 = !{!9, !9, i64 0}
!9 = !{!"int", !6, i64 0}
!10 = distinct !{!10, !11}
!11 = !{!"llvm.loop.mustprogress"}
!12 = distinct !{!12, !11}
